target datalayout = "e-m:e-p270:32:32-p271:32:32-p272:64:64-i64:64-i128:128-f80:128-n8:16:32:64-S128"
target triple = "x86_64-pc-linux-gnu"

%struct.stbi__zhuffman = type { [512 x i16], [16 x i16], [17 x i32], [16 x i16], [288 x i8], [288 x i16] }
%struct.stbi__zbuf = type { ptr, ptr, i32, i32, i32, ptr, ptr, ptr, i32, %struct.stbi__zhuffman, %struct.stbi__zhuffman }

; Function Attrs: nounwind uwtable
define i32 @stbi__do_zlib(ptr noundef %0, ptr noundef %1, i32 noundef %2, i32 noundef %3, i32 noundef %4) #0 {
  %6 = alloca ptr, align 8
  %7 = alloca ptr, align 8
  %8 = alloca i32, align 4
  %9 = alloca i32, align 4
  %10 = alloca i32, align 4
  store ptr %0, ptr %6, align 8, !tbaa !3
  store ptr %1, ptr %7, align 8, !tbaa !7
  store i32 %2, ptr %8, align 4, !tbaa !9
  store i32 %3, ptr %9, align 4, !tbaa !9
  store i32 %4, ptr %10, align 4, !tbaa !9
  %11 = load ptr, ptr %7, align 8, !tbaa !7
  %12 = load ptr, ptr %6, align 8, !tbaa !3
  %13 = getelementptr inbounds nuw %struct.stbi__zbuf, ptr %12, i32 0, i32 6
  store ptr %11, ptr %13, align 8, !tbaa !295
  %14 = load ptr, ptr %7, align 8, !tbaa !7
  %15 = load ptr, ptr %6, align 8, !tbaa !3
  %16 = getelementptr inbounds nuw %struct.stbi__zbuf, ptr %15, i32 0, i32 5
  store ptr %14, ptr %16, align 8, !tbaa !293
  %17 = load ptr, ptr %7, align 8, !tbaa !7
  %18 = load i32, ptr %8, align 4, !tbaa !9
  %19 = sext i32 %18 to i64
  %20 = getelementptr inbounds i8, ptr %17, i64 %19
  %21 = load ptr, ptr %6, align 8, !tbaa !3
  %22 = getelementptr inbounds nuw %struct.stbi__zbuf, ptr %21, i32 0, i32 7
  store ptr %20, ptr %22, align 8, !tbaa !296
  %23 = load i32, ptr %9, align 4, !tbaa !9
  %24 = load ptr, ptr %6, align 8, !tbaa !3
  %25 = getelementptr inbounds nuw %struct.stbi__zbuf, ptr %24, i32 0, i32 8
  store i32 %23, ptr %25, align 8, !tbaa !294
  %26 = load ptr, ptr %6, align 8, !tbaa !3
  %27 = load i32, ptr %10, align 4, !tbaa !9
  %28 = call i32 @stbi__parse_zlib(ptr noundef %26, i32 noundef %27)
  ret i32 %28
}

; Function Attrs: nounwind uwtable
define ptr @stbi__malloc(i64 noundef %0) #0 {
  %2 = alloca i64, align 8
  store i64 %0, ptr %2, align 8, !tbaa !26
  %3 = load i64, ptr %2, align 8, !tbaa !26
  %4 = call noalias ptr @malloc(i64 noundef %3) #14
  ret ptr %4
}

; Function Attrs: nounwind uwtable
define ptr @stbi_zlib_decode_malloc_guesssize_headerflag(ptr noundef %0, i32 noundef %1, i32 noundef %2, ptr noundef %3, i32 noundef %4) #0 {
  %6 = alloca ptr, align 8
  %7 = alloca ptr, align 8
  %8 = alloca i32, align 4
  %9 = alloca i32, align 4
  %10 = alloca ptr, align 8
  %11 = alloca i32, align 4
  %12 = alloca %struct.stbi__zbuf, align 8
  %13 = alloca ptr, align 8
  %14 = alloca i32, align 4
  store ptr %0, ptr %7, align 8, !tbaa !7
  store i32 %1, ptr %8, align 4, !tbaa !9
  store i32 %2, ptr %9, align 4, !tbaa !9
  store ptr %3, ptr %10, align 8, !tbaa !28
  store i32 %4, ptr %11, align 4, !tbaa !9
  call void @llvm.lifetime.start.p0(i64 4104, ptr %12) #13
  call void @llvm.lifetime.start.p0(i64 8, ptr %13) #13
  %15 = load i32, ptr %9, align 4, !tbaa !9
  %16 = sext i32 %15 to i64
  %17 = call ptr @stbi__malloc(i64 noundef %16)
  store ptr %17, ptr %13, align 8, !tbaa !7
  %18 = load ptr, ptr %13, align 8, !tbaa !7
  %19 = icmp eq ptr %18, null
  br i1 %19, label %20, label %21

20:                                               ; preds = %5
  store ptr null, ptr %6, align 8
  store i32 1, ptr %14, align 4
  br label %53

21:                                               ; preds = %5
  %22 = load ptr, ptr %7, align 8, !tbaa !7
  %23 = getelementptr inbounds nuw %struct.stbi__zbuf, ptr %12, i32 0, i32 0
  store ptr %22, ptr %23, align 8, !tbaa !285
  %24 = load ptr, ptr %7, align 8, !tbaa !7
  %25 = load i32, ptr %8, align 4, !tbaa !9
  %26 = sext i32 %25 to i64
  %27 = getelementptr inbounds i8, ptr %24, i64 %26
  %28 = getelementptr inbounds nuw %struct.stbi__zbuf, ptr %12, i32 0, i32 1
  store ptr %27, ptr %28, align 8, !tbaa !288
  %29 = load ptr, ptr %13, align 8, !tbaa !7
  %30 = load i32, ptr %9, align 4, !tbaa !9
  %31 = load i32, ptr %11, align 4, !tbaa !9
  %32 = call i32 @stbi__do_zlib(ptr noundef %12, ptr noundef %29, i32 noundef %30, i32 noundef 1, i32 noundef %31)
  %33 = icmp ne i32 %32, 0
  br i1 %33, label %34, label %50

34:                                               ; preds = %21
  %35 = load ptr, ptr %10, align 8, !tbaa !28
  %36 = icmp ne ptr %35, null
  br i1 %36, label %37, label %47

37:                                               ; preds = %34
  %38 = getelementptr inbounds nuw %struct.stbi__zbuf, ptr %12, i32 0, i32 5
  %39 = load ptr, ptr %38, align 8, !tbaa !293
  %40 = getelementptr inbounds nuw %struct.stbi__zbuf, ptr %12, i32 0, i32 6
  %41 = load ptr, ptr %40, align 8, !tbaa !295
  %42 = ptrtoint ptr %39 to i64
  %43 = ptrtoint ptr %41 to i64
  %44 = sub i64 %42, %43
  %45 = trunc i64 %44 to i32
  %46 = load ptr, ptr %10, align 8, !tbaa !28
  store i32 %45, ptr %46, align 4, !tbaa !9
  br label %47

47:                                               ; preds = %37, %34
  %48 = getelementptr inbounds nuw %struct.stbi__zbuf, ptr %12, i32 0, i32 6
  %49 = load ptr, ptr %48, align 8, !tbaa !295
  store ptr %49, ptr %6, align 8
  store i32 1, ptr %14, align 4
  br label %53

50:                                               ; preds = %21
  %51 = getelementptr inbounds nuw %struct.stbi__zbuf, ptr %12, i32 0, i32 6
  %52 = load ptr, ptr %51, align 8, !tbaa !295
  call void @free(ptr noundef %52) #13
  store ptr null, ptr %6, align 8
  store i32 1, ptr %14, align 4
  br label %53

53:                                               ; preds = %50, %47, %20
  call void @llvm.lifetime.end.p0(i64 8, ptr %13) #13
  call void @llvm.lifetime.end.p0(i64 4104, ptr %12) #13
  %54 = load ptr, ptr %6, align 8
  ret ptr %54
}