; Function Attrs: nounwind uwtable
define ptr @stbi_zlib_decode_malloc_guesssize_headerflag(ptr noundef %0, i32 noundef %1, i32 noundef %2, ptr noundef writeonly captures(address_is_null) %3, i32 noundef %4) local_unnamed_addr #2 {
  %6 = alloca %struct.stbi__zbuf, align 8
  call void @llvm.lifetime.start.p0(i64 4104, ptr nonnull %6) #37
  %7 = sext i32 %2 to i64
  %8 = tail call noalias noundef ptr @malloc(i64 noundef %7) #38
  %9 = icmp eq ptr %8, null
  br i1 %9, label %29, label %10

10:                                               ; preds = %5
  store ptr %0, ptr %6, align 8, !tbaa !275
  %11 = sext i32 %1 to i64
  %12 = getelementptr inbounds i8, ptr %0, i64 %11
  %13 = getelementptr inbounds nuw i8, ptr %6, i64 8
  store ptr %12, ptr %13, align 8, !tbaa !278
  %14 = getelementptr inbounds nuw i8, ptr %6, i64 40
  store ptr %8, ptr %14, align 8, !tbaa !285
  %15 = getelementptr inbounds nuw i8, ptr %6, i64 32
  store ptr %8, ptr %15, align 8, !tbaa !283
  %16 = getelementptr inbounds i8, ptr %8, i64 %7
  %17 = getelementptr inbounds nuw i8, ptr %6, i64 48
  store ptr %16, ptr %17, align 8, !tbaa !286
  %18 = getelementptr inbounds nuw i8, ptr %6, i64 56
  store i32 1, ptr %18, align 8, !tbaa !284
  %19 = call range(i32 0, 2) i32 @stbi__parse_zlib(ptr noundef nonnull %6, i32 noundef %4)
  %.not = icmp eq i32 %19, 0
  br i1 %.not, label %27, label %20

20:                                               ; preds = %10
  %.not12 = icmp eq ptr %3, null
  %.pre = load ptr, ptr %14, align 8, !tbaa !285
  br i1 %.not12, label %29, label %21

21:                                               ; preds = %20
  %22 = load ptr, ptr %15, align 8, !tbaa !283
  %23 = ptrtoint ptr %22 to i64
  %24 = ptrtoint ptr %.pre to i64
  %25 = sub i64 %23, %24
  %26 = trunc i64 %25 to i32
  store i32 %26, ptr %3, align 4, !tbaa !23
  br label %29

27:                                               ; preds = %10
  %28 = load ptr, ptr %14, align 8, !tbaa !285
  tail call void @free(ptr noundef %28) #37
  br label %29

29:                                               ; preds = %20, %21, %5, %27
  %.0 = phi ptr [ null, %27 ], [ null, %5 ], [ %.pre, %21 ], [ %.pre, %20 ]
  call void @llvm.lifetime.end.p0(i64 4104, ptr nonnull %6) #37
  ret ptr %.0
}